target datalayout = "e-m:e-p270:32:32-p271:32:32-p272:64:64-i64:64-i128:128-f80:128-n8:16:32:64-S128"
target triple = "x86_64-pc-linux-gnu"

%struct._aim_tlv = type { i16, ptr, ptr }

@hf_aim_tlv_length = internal global i32 0, align 4
@hf_aim_tlv_value_id = internal global i32 0, align 4
@.str.110 = private unnamed_addr constant [8 x i8] c"Unknown\00", align 1
@ett_aim_tlv = internal global i32 0, align 4
@ett_aim_tlv_value = internal global i32 0, align 4
@.str.534 = private unnamed_addr constant [8 x i8] c"TLV: %s\00", align 1
@.str.535 = private unnamed_addr constant [12 x i8] c"%s (0x%04x)\00", align 1
@.str.536 = private unnamed_addr constant [6 x i8] c"Value\00", align 1

; Function Attrs: null_pointer_is_valid sspstrong uwtable
define internal i32 @dissect_aim_tlv(ptr noundef %0, ptr noundef %1, i32 noundef %2, ptr noundef %3, ptr noundef %4) #0 {
  %6 = alloca ptr, align 8
  %7 = alloca ptr, align 8
  %8 = alloca i32, align 4
  %9 = alloca ptr, align 8
  %10 = alloca ptr, align 8
  %11 = alloca i16, align 2
  %12 = alloca i16, align 2
  %13 = alloca i32, align 4
  %14 = alloca ptr, align 8
  %15 = alloca ptr, align 8
  %16 = alloca ptr, align 8
  %17 = alloca ptr, align 8
  store ptr %0, ptr %6, align 8
  store ptr %1, ptr %7, align 8
  store i32 %2, ptr %8, align 4
  store ptr %3, ptr %9, align 8
  store ptr %4, ptr %10, align 8
  call void @llvm.lifetime.start.p0(i64 2, ptr %11) #13
  call void @llvm.lifetime.start.p0(i64 2, ptr %12) #13
  call void @llvm.lifetime.start.p0(i64 4, ptr %13) #13
  store i32 0, ptr %13, align 4
  call void @llvm.lifetime.start.p0(i64 8, ptr %14) #13
  call void @llvm.lifetime.start.p0(i64 8, ptr %15) #13
  call void @llvm.lifetime.start.p0(i64 8, ptr %16) #13
  call void @llvm.lifetime.start.p0(i64 8, ptr %17) #13
  %18 = load ptr, ptr %6, align 8
  %19 = load i32, ptr %8, align 4
  %20 = call zeroext i16 @tvb_get_ntohs(ptr noundef %18, i32 noundef %19)
  store i16 %20, ptr %11, align 2
  %21 = load ptr, ptr %10, align 8
  store ptr %21, ptr %14, align 8
  br label %22

22:                                               ; preds = %42, %5
  %23 = load ptr, ptr %14, align 8
  %24 = load i32, ptr %13, align 4
  %25 = sext i32 %24 to i64
  %26 = getelementptr %struct._aim_tlv, ptr %23, i64 %25
  %27 = getelementptr inbounds nuw %struct._aim_tlv, ptr %26, i32 0, i32 0
  %28 = load i16, ptr %27, align 8
  %29 = icmp ne i16 %28, 0
  br i1 %29, label %30, label %45

30:                                               ; preds = %22
  %31 = load ptr, ptr %14, align 8
  %32 = load i32, ptr %13, align 4
  %33 = sext i32 %32 to i64
  %34 = getelementptr %struct._aim_tlv, ptr %31, i64 %33
  %35 = getelementptr inbounds nuw %struct._aim_tlv, ptr %34, i32 0, i32 0
  %36 = load i16, ptr %35, align 8
  %37 = zext i16 %36 to i32
  %38 = load i16, ptr %11, align 2
  %39 = zext i16 %38 to i32
  %40 = icmp eq i32 %37, %39
  br i1 %40, label %41, label %42

41:                                               ; preds = %30
  br label %45

42:                                               ; preds = %30
  %43 = load i32, ptr %13, align 4
  %44 = add i32 %43, 1
  store i32 %44, ptr %13, align 4
  br label %22, !llvm.loop !12

45:                                               ; preds = %41, %22
  %46 = load ptr, ptr %6, align 8
  %47 = load i32, ptr %8, align 4
  %48 = add i32 %47, 2
  %49 = call zeroext i16 @tvb_get_ntohs(ptr noundef %46, i32 noundef %48)
  store i16 %49, ptr %12, align 2
  %50 = load ptr, ptr %14, align 8
  %51 = load i32, ptr %13, align 4
  %52 = sext i32 %51 to i64
  %53 = getelementptr %struct._aim_tlv, ptr %50, i64 %52
  %54 = getelementptr inbounds nuw %struct._aim_tlv, ptr %53, i32 0, i32 1
  %55 = load ptr, ptr %54, align 8
  %56 = icmp ne ptr %55, null
  br i1 %56, label %57, label %64

57:                                               ; preds = %45
  %58 = load ptr, ptr %14, align 8
  %59 = load i32, ptr %13, align 4
  %60 = sext i32 %59 to i64
  %61 = getelementptr %struct._aim_tlv, ptr %58, i64 %60
  %62 = getelementptr inbounds nuw %struct._aim_tlv, ptr %61, i32 0, i32 1
  %63 = load ptr, ptr %62, align 8
  store ptr %63, ptr %15, align 8
  br label %65

64:                                               ; preds = %45
  store ptr @.str.110, ptr %15, align 8
  br label %65

65:                                               ; preds = %64, %57
  %66 = load ptr, ptr %9, align 8
  %67 = load ptr, ptr %6, align 8
  %68 = load i32, ptr %8, align 4
  %69 = load i16, ptr %12, align 2
  %70 = zext i16 %69 to i32
  %71 = add i32 %70, 4
  %72 = load i32, ptr @ett_aim_tlv, align 4
  %73 = load ptr, ptr %15, align 8
  %74 = call ptr (ptr, ptr, i32, i32, i32, ptr, ptr, ...) @proto_tree_add_subtree_format(ptr noundef %66, ptr noundef %67, i32 noundef %68, i32 noundef %71, i32 noundef %72, ptr noundef null, ptr noundef @.str.534, ptr noundef %73)
  store ptr %74, ptr %17, align 8
  %75 = load ptr, ptr %17, align 8
  %76 = load i32, ptr @hf_aim_tlv_value_id, align 4
  %77 = load ptr, ptr %6, align 8
  %78 = load i32, ptr %8, align 4
  %79 = load i16, ptr %11, align 2
  %80 = zext i16 %79 to i32
  %81 = load ptr, ptr %15, align 8
  %82 = load i16, ptr %11, align 2
  %83 = zext i16 %82 to i32
  %84 = call ptr (ptr, i32, ptr, i32, i32, i32, ptr, ...) @proto_tree_add_uint_format_value(ptr noundef %75, i32 noundef %76, ptr noundef %77, i32 noundef %78, i32 noundef 2, i32 noundef %80, ptr noundef @.str.535, ptr noundef %81, i32 noundef %83)
  %85 = load i32, ptr %8, align 4
  %86 = add i32 %85, 2
  store i32 %86, ptr %8, align 4
  %87 = load ptr, ptr %17, align 8
  %88 = load i32, ptr @hf_aim_tlv_length, align 4
  %89 = load ptr, ptr %6, align 8
  %90 = load i32, ptr %8, align 4
  %91 = load i16, ptr %12, align 2
  %92 = zext i16 %91 to i32
  %93 = call ptr @proto_tree_add_uint(ptr noundef %87, i32 noundef %88, ptr noundef %89, i32 noundef %90, i32 noundef 2, i32 noundef %92)
  %94 = load i32, ptr %8, align 4
  %95 = add i32 %94, 2
  store i32 %95, ptr %8, align 4
  %96 = load ptr, ptr %17, align 8
  %97 = load ptr, ptr %6, align 8
  %98 = load i32, ptr %8, align 4
  %99 = load i16, ptr %12, align 2
  %100 = zext i16 %99 to i32
  %101 = load i32, ptr @ett_aim_tlv_value, align 4
  %102 = call ptr @proto_tree_add_subtree(ptr noundef %96, ptr noundef %97, i32 noundef %98, i32 noundef %100, i32 noundef %101, ptr noundef %16, ptr noundef @.str.536)
  %103 = load ptr, ptr %14, align 8
  %104 = load i32, ptr %13, align 4
  %105 = sext i32 %104 to i64
  %106 = getelementptr %struct._aim_tlv, ptr %103, i64 %105
  %107 = getelementptr inbounds nuw %struct._aim_tlv, ptr %106, i32 0, i32 2
  %108 = load ptr, ptr %107, align 8
  %109 = icmp ne ptr %108, null
  br i1 %109, label %110, label %126

110:                                              ; preds = %65
  %111 = load ptr, ptr %14, align 8
  %112 = load i32, ptr %13, align 4
  %113 = sext i32 %112 to i64
  %114 = getelementptr %struct._aim_tlv, ptr %111, i64 %113
  %115 = getelementptr inbounds nuw %struct._aim_tlv, ptr %114, i32 0, i32 2
  %116 = load ptr, ptr %115, align 8
  %117 = load ptr, ptr %16, align 8
  %118 = load i16, ptr %11, align 2
  %119 = load ptr, ptr %6, align 8
  %120 = load i32, ptr %8, align 4
  %121 = load i16, ptr %12, align 2
  %122 = zext i16 %121 to i32
  %123 = call ptr @tvb_new_subset_length(ptr noundef %119, i32 noundef %120, i32 noundef %122)
  %124 = load ptr, ptr %7, align 8
  %125 = call i32 %116(ptr noundef %117, i16 noundef zeroext %118, ptr noundef %123, ptr noundef %124)
  br label %126

126:                                              ; preds = %110, %65
  %127 = load i16, ptr %12, align 2
  %128 = zext i16 %127 to i32
  %129 = load i32, ptr %8, align 4
  %130 = add i32 %129, %128
  store i32 %130, ptr %8, align 4
  %131 = load i32, ptr %8, align 4
  call void @llvm.lifetime.end.p0(i64 8, ptr %17) #13
  call void @llvm.lifetime.end.p0(i64 8, ptr %16) #13
  call void @llvm.lifetime.end.p0(i64 8, ptr %15) #13
  call void @llvm.lifetime.end.p0(i64 8, ptr %14) #13
  call void @llvm.lifetime.end.p0(i64 4, ptr %13) #13
  call void @llvm.lifetime.end.p0(i64 2, ptr %12) #13
  call void @llvm.lifetime.end.p0(i64 2, ptr %11) #13
  ret i32 %131
}