; Function Attrs: null_pointer_is_valid sspstrong uwtable
define internal fastcc i32 @dissect_aim_tlv(ptr noundef %0, ptr noundef %1, i32 noundef %2, ptr noundef %3, ptr noundef readonly captures(none) %4) unnamed_addr #0 {
  %6 = alloca ptr, align 8
  call void @llvm.lifetime.start.p0(i64 8, ptr nonnull %6) #11
  %7 = tail call zeroext i16 @tvb_get_ntohs(ptr noundef %0, i32 noundef %2)
  br label %8

8:                                                ; preds = %8, %5
  %.047 = phi i32 [ 0, %5 ], [ %13, %8 ]
  %9 = sext i32 %.047 to i64
  %10 = getelementptr %struct._aim_tlv, ptr %4, i64 %9
  %11 = load i16, ptr %10, align 8
  %.not = icmp eq i16 %11, 0
  %12 = icmp eq i16 %11, %7
  %or.cond = select i1 %.not, i1 true, i1 %12
  %13 = add i32 %.047, 1
  br i1 %or.cond, label %14, label %8, !llvm.loop !13

14:                                               ; preds = %8
  %15 = add i32 %2, 2
  %16 = tail call zeroext i16 @tvb_get_ntohs(ptr noundef %0, i32 noundef %15)
  %17 = getelementptr inbounds nuw i8, ptr %10, i64 8
  %18 = load ptr, ptr %17, align 8
  %.not51 = icmp eq ptr %18, null
  %.str.110. = select i1 %.not51, ptr @.str.110, ptr %18
  %19 = zext i16 %16 to i32
  %20 = add nuw nsw i32 %19, 4
  %21 = load i32, ptr @ett_aim_tlv, align 4
  %22 = tail call ptr (ptr, ptr, i32, i32, i32, ptr, ptr, ...) @proto_tree_add_subtree_format(ptr noundef %3, ptr noundef %0, i32 noundef %2, i32 noundef %20, i32 noundef %21, ptr noundef null, ptr noundef nonnull @.str.534, ptr noundef nonnull %.str.110.)
  %23 = load i32, ptr @hf_aim_tlv_value_id, align 4
  %24 = zext i16 %7 to i32
  %25 = tail call ptr (ptr, i32, ptr, i32, i32, i32, ptr, ...) @proto_tree_add_uint_format_value(ptr noundef %22, i32 noundef %23, ptr noundef %0, i32 noundef %2, i32 noundef 2, i32 noundef %24, ptr noundef nonnull @.str.535, ptr noundef nonnull %.str.110., i32 noundef %24)
  %26 = load i32, ptr @hf_aim_tlv_length, align 4
  %27 = tail call ptr @proto_tree_add_uint(ptr noundef %22, i32 noundef %26, ptr noundef %0, i32 noundef %15, i32 noundef 2, i32 noundef %19)
  %28 = add i32 %2, 4
  %29 = load i32, ptr @ett_aim_tlv_value, align 4
  %30 = call ptr @proto_tree_add_subtree(ptr noundef %22, ptr noundef %0, i32 noundef %28, i32 noundef %19, i32 noundef %29, ptr noundef nonnull %6, ptr noundef nonnull @.str.536)
  %31 = getelementptr inbounds nuw i8, ptr %10, i64 16
  %32 = load ptr, ptr %31, align 8
  %.not52 = icmp eq ptr %32, null
  br i1 %.not52, label %37, label %33

33:                                               ; preds = %14
  %34 = load ptr, ptr %6, align 8
  %35 = call ptr @tvb_new_subset_length(ptr noundef %0, i32 noundef %28, i32 noundef %19)
  %36 = call i32 %32(ptr noundef %34, i16 noundef zeroext %7, ptr noundef %35, ptr noundef %1)
  br label %37

37:                                               ; preds = %33, %14
  %38 = add i32 %28, %19
  call void @llvm.lifetime.end.p0(i64 8, ptr nonnull %6) #11
  ret i32 %38
}